target datalayout = "e-m:e-p270:32:32-p271:32:32-p272:64:64-i64:64-i128:128-f80:128-n8:16:32:64-S128"
target triple = "x86_64-pc-linux-gnu"

%struct.stbi__result_info = type { i32, i32, i32 }

@_ZL22stbi__g_failure_reason = internal thread_local global ptr null, align 8
@_ZL36stbi__vertically_flip_on_load_global = internal global i32 0, align 4
@_ZL35stbi__vertically_flip_on_load_local = internal thread_local global i32 0, align 4
@_ZL33stbi__vertically_flip_on_load_set = internal thread_local global i32 0, align 4
@.str.2 = private unnamed_addr constant [117 x i8] c"generated/home/dtcxzyw/WorkSpace/Projects/compilers/llvm-opt-benchmark/bench/pbrt-v4/pbrt-v4/src/ext/stb/stb_image.h\00", align 1
@.str.3 = private unnamed_addr constant [17 x i8] c"Check failed: %s\00", align 1
@.str.4 = private unnamed_addr constant [54 x i8] c"ri.bits_per_channel == 8 || ri.bits_per_channel == 16\00", align 1
@.str.8 = private unnamed_addr constant [9 x i8] c"outofmem\00", align 1

; Function Attrs: mustprogress nounwind uwtable
define internal noundef i32 @_ZL9stbi__errPKc(ptr noundef %0) #0 {
  %2 = alloca ptr, align 8
  store ptr %0, ptr %2, align 8, !tbaa !4
  %3 = load ptr, ptr %2, align 8, !tbaa !4
  %4 = call align 8 ptr @llvm.threadlocal.address.p0(ptr align 8 @_ZL22stbi__g_failure_reason)
  store ptr %3, ptr %4, align 8, !tbaa !4
  ret i32 0
}

; Function Attrs: mustprogress nounwind uwtable
define internal noundef ptr @_ZL12stbi__mallocm(i64 noundef %0) #0 {
  %2 = alloca i64, align 8
  store i64 %0, ptr %2, align 8, !tbaa !47
  %3 = load i64, ptr %2, align 8, !tbaa !47
  %4 = call noalias ptr @malloc(i64 noundef %3) #26
  ret ptr %4
}

; Function Attrs: mustprogress nounwind uwtable
define internal void @_ZL19stbi__vertical_flipPviii(ptr noundef %0, i32 noundef %1, i32 noundef %2, i32 noundef %3) #0 {
  %5 = alloca ptr, align 8
  %6 = alloca i32, align 4
  %7 = alloca i32, align 4
  %8 = alloca i32, align 4
  %9 = alloca i32, align 4
  %10 = alloca i64, align 8
  %11 = alloca [2048 x i8], align 16
  %12 = alloca ptr, align 8
  %13 = alloca ptr, align 8
  %14 = alloca ptr, align 8
  %15 = alloca i64, align 8
  %16 = alloca i64, align 8
  store ptr %0, ptr %5, align 8, !tbaa !9
  store i32 %1, ptr %6, align 4, !tbaa !10
  store i32 %2, ptr %7, align 4, !tbaa !10
  store i32 %3, ptr %8, align 4, !tbaa !10
  call void @llvm.lifetime.start.p0(i64 4, ptr %9) #22
  call void @llvm.lifetime.start.p0(i64 8, ptr %10) #22
  %17 = load i32, ptr %6, align 4, !tbaa !10
  %18 = sext i32 %17 to i64
  %19 = load i32, ptr %8, align 4, !tbaa !10
  %20 = sext i32 %19 to i64
  %21 = mul i64 %18, %20
  store i64 %21, ptr %10, align 8, !tbaa !47
  call void @llvm.lifetime.start.p0(i64 2048, ptr %11) #22
  call void @llvm.lifetime.start.p0(i64 8, ptr %12) #22
  %22 = load ptr, ptr %5, align 8, !tbaa !9
  store ptr %22, ptr %12, align 8, !tbaa !4
  store i32 0, ptr %9, align 4, !tbaa !10
  br label %23

23:                                               ; preds = %75, %4
  %24 = load i32, ptr %9, align 4, !tbaa !10
  %25 = load i32, ptr %7, align 4, !tbaa !10
  %26 = ashr i32 %25, 1
  %27 = icmp slt i32 %24, %26
  br i1 %27, label %28, label %78

28:                                               ; preds = %23
  call void @llvm.lifetime.start.p0(i64 8, ptr %13) #22
  %29 = load ptr, ptr %12, align 8, !tbaa !4
  %30 = load i32, ptr %9, align 4, !tbaa !10
  %31 = sext i32 %30 to i64
  %32 = load i64, ptr %10, align 8, !tbaa !47
  %33 = mul i64 %31, %32
  %34 = getelementptr inbounds nuw i8, ptr %29, i64 %33
  store ptr %34, ptr %13, align 8, !tbaa !4
  call void @llvm.lifetime.start.p0(i64 8, ptr %14) #22
  %35 = load ptr, ptr %12, align 8, !tbaa !4
  %36 = load i32, ptr %7, align 4, !tbaa !10
  %37 = load i32, ptr %9, align 4, !tbaa !10
  %38 = sub nsw i32 %36, %37
  %39 = sub nsw i32 %38, 1
  %40 = sext i32 %39 to i64
  %41 = load i64, ptr %10, align 8, !tbaa !47
  %42 = mul i64 %40, %41
  %43 = getelementptr inbounds nuw i8, ptr %35, i64 %42
  store ptr %43, ptr %14, align 8, !tbaa !4
  call void @llvm.lifetime.start.p0(i64 8, ptr %15) #22
  %44 = load i64, ptr %10, align 8, !tbaa !47
  store i64 %44, ptr %15, align 8, !tbaa !47
  br label %45

45:                                               ; preds = %54, %28
  %46 = load i64, ptr %15, align 8, !tbaa !47
  %47 = icmp ne i64 %46, 0
  br i1 %47, label %48, label %74

48:                                               ; preds = %45
  call void @llvm.lifetime.start.p0(i64 8, ptr %16) #22
  %49 = load i64, ptr %15, align 8, !tbaa !47
  %50 = icmp ult i64 %49, 2048
  br i1 %50, label %51, label %53

51:                                               ; preds = %48
  %52 = load i64, ptr %15, align 8, !tbaa !47
  br label %54

53:                                               ; preds = %48
  br label %54

54:                                               ; preds = %53, %51
  %55 = phi i64 [ %52, %51 ], [ 2048, %53 ]
  store i64 %55, ptr %16, align 8, !tbaa !47
  %56 = getelementptr inbounds [2048 x i8], ptr %11, i64 0, i64 0
  %57 = load ptr, ptr %13, align 8, !tbaa !4
  %58 = load i64, ptr %16, align 8, !tbaa !47
  call void @llvm.memcpy.p0.p0.i64(ptr align 16 %56, ptr align 1 %57, i64 %58, i1 false)
  %59 = load ptr, ptr %13, align 8, !tbaa !4
  %60 = load ptr, ptr %14, align 8, !tbaa !4
  %61 = load i64, ptr %16, align 8, !tbaa !47
  call void @llvm.memcpy.p0.p0.i64(ptr align 1 %59, ptr align 1 %60, i64 %61, i1 false)
  %62 = load ptr, ptr %14, align 8, !tbaa !4
  %63 = getelementptr inbounds [2048 x i8], ptr %11, i64 0, i64 0
  %64 = load i64, ptr %16, align 8, !tbaa !47
  call void @llvm.memcpy.p0.p0.i64(ptr align 1 %62, ptr align 16 %63, i64 %64, i1 false)
  %65 = load i64, ptr %16, align 8, !tbaa !47
  %66 = load ptr, ptr %13, align 8, !tbaa !4
  %67 = getelementptr inbounds nuw i8, ptr %66, i64 %65
  store ptr %67, ptr %13, align 8, !tbaa !4
  %68 = load i64, ptr %16, align 8, !tbaa !47
  %69 = load ptr, ptr %14, align 8, !tbaa !4
  %70 = getelementptr inbounds nuw i8, ptr %69, i64 %68
  store ptr %70, ptr %14, align 8, !tbaa !4
  %71 = load i64, ptr %16, align 8, !tbaa !47
  %72 = load i64, ptr %15, align 8, !tbaa !47
  %73 = sub i64 %72, %71
  store i64 %73, ptr %15, align 8, !tbaa !47
  call void @llvm.lifetime.end.p0(i64 8, ptr %16) #22
  br label %45, !llvm.loop !59

74:                                               ; preds = %45
  call void @llvm.lifetime.end.p0(i64 8, ptr %15) #22
  call void @llvm.lifetime.end.p0(i64 8, ptr %14) #22
  call void @llvm.lifetime.end.p0(i64 8, ptr %13) #22
  br label %75

75:                                               ; preds = %74
  %76 = load i32, ptr %9, align 4, !tbaa !10
  %77 = add nsw i32 %76, 1
  store i32 %77, ptr %9, align 4, !tbaa !10
  br label %23, !llvm.loop !60

78:                                               ; preds = %23
  call void @llvm.lifetime.end.p0(i64 8, ptr %12) #22
  call void @llvm.lifetime.end.p0(i64 2048, ptr %11) #22
  call void @llvm.lifetime.end.p0(i64 8, ptr %10) #22
  call void @llvm.lifetime.end.p0(i64 4, ptr %9) #22
  ret void
}

; Function Attrs: mustprogress nounwind uwtable
define internal noundef ptr @_ZL21stbi__convert_16_to_8Ptiii(ptr noundef %0, i32 noundef %1, i32 noundef %2, i32 noundef %3) #0 {
  %5 = alloca ptr, align 8
  %6 = alloca ptr, align 8
  %7 = alloca i32, align 4
  %8 = alloca i32, align 4
  %9 = alloca i32, align 4
  %10 = alloca i32, align 4
  %11 = alloca i32, align 4
  %12 = alloca ptr, align 8
  %13 = alloca i32, align 4
  store ptr %0, ptr %6, align 8, !tbaa !22
  store i32 %1, ptr %7, align 4, !tbaa !10
  store i32 %2, ptr %8, align 4, !tbaa !10
  store i32 %3, ptr %9, align 4, !tbaa !10
  call void @llvm.lifetime.start.p0(i64 4, ptr %10) #22
  call void @llvm.lifetime.start.p0(i64 4, ptr %11) #22
  %14 = load i32, ptr %7, align 4, !tbaa !10
  %15 = load i32, ptr %8, align 4, !tbaa !10
  %16 = mul nsw i32 %14, %15
  %17 = load i32, ptr %9, align 4, !tbaa !10
  %18 = mul nsw i32 %16, %17
  store i32 %18, ptr %11, align 4, !tbaa !10
  call void @llvm.lifetime.start.p0(i64 8, ptr %12) #22
  %19 = load i32, ptr %11, align 4, !tbaa !10
  %20 = sext i32 %19 to i64
  %21 = call noundef ptr @_ZL12stbi__mallocm(i64 noundef %20)
  store ptr %21, ptr %12, align 8, !tbaa !4
  %22 = load ptr, ptr %12, align 8, !tbaa !4
  %23 = icmp eq ptr %22, null
  br i1 %23, label %24, label %29

24:                                               ; preds = %4
  %25 = call noundef i32 @_ZL9stbi__errPKc(ptr noundef @.str.8)
  %26 = icmp ne i32 %25, 0
  %27 = select i1 %26, i64 0, i64 0
  %28 = inttoptr i64 %27 to ptr
  store ptr %28, ptr %5, align 8
  store i32 1, ptr %13, align 4
  br label %54

29:                                               ; preds = %4
  store i32 0, ptr %10, align 4, !tbaa !10
  br label %30

30:                                               ; preds = %48, %29
  %31 = load i32, ptr %10, align 4, !tbaa !10
  %32 = load i32, ptr %11, align 4, !tbaa !10
  %33 = icmp slt i32 %31, %32
  br i1 %33, label %34, label %51

34:                                               ; preds = %30
  %35 = load ptr, ptr %6, align 8, !tbaa !22
  %36 = load i32, ptr %10, align 4, !tbaa !10
  %37 = sext i32 %36 to i64
  %38 = getelementptr inbounds i16, ptr %35, i64 %37
  %39 = load i16, ptr %38, align 2, !tbaa !55
  %40 = zext i16 %39 to i32
  %41 = ashr i32 %40, 8
  %42 = and i32 %41, 255
  %43 = trunc i32 %42 to i8
  %44 = load ptr, ptr %12, align 8, !tbaa !4
  %45 = load i32, ptr %10, align 4, !tbaa !10
  %46 = sext i32 %45 to i64
  %47 = getelementptr inbounds i8, ptr %44, i64 %46
  store i8 %43, ptr %47, align 1, !tbaa !57
  br label %48

48:                                               ; preds = %34
  %49 = load i32, ptr %10, align 4, !tbaa !10
  %50 = add nsw i32 %49, 1
  store i32 %50, ptr %10, align 4, !tbaa !10
  br label %30, !llvm.loop !58

51:                                               ; preds = %30
  %52 = load ptr, ptr %6, align 8, !tbaa !22
  call void @free(ptr noundef %52) #22
  %53 = load ptr, ptr %12, align 8, !tbaa !4
  store ptr %53, ptr %5, align 8
  store i32 1, ptr %13, align 4
  br label %54

54:                                               ; preds = %51, %24
  call void @llvm.lifetime.end.p0(i64 8, ptr %12) #22
  call void @llvm.lifetime.end.p0(i64 4, ptr %11) #22
  call void @llvm.lifetime.end.p0(i64 4, ptr %10) #22
  %55 = load ptr, ptr %5, align 8
  ret ptr %55
}

; Function Attrs: mustprogress uwtable
define internal noundef ptr @_ZL31stbi__load_and_postprocess_8bitP13stbi__contextPiS1_S1_i(ptr noundef %0, ptr noundef %1, ptr noundef %2, ptr noundef %3, i32 noundef %4) #3 {
  %6 = alloca ptr, align 8
  %7 = alloca ptr, align 8
  %8 = alloca ptr, align 8
  %9 = alloca ptr, align 8
  %10 = alloca ptr, align 8
  %11 = alloca i32, align 4
  %12 = alloca %struct.stbi__result_info, align 4
  %13 = alloca ptr, align 8
  %14 = alloca i32, align 4
  %15 = alloca i32, align 4
  store ptr %0, ptr %7, align 8, !tbaa !9
  store ptr %1, ptr %8, align 8, !tbaa !12
  store ptr %2, ptr %9, align 8, !tbaa !12
  store ptr %3, ptr %10, align 8, !tbaa !12
  store i32 %4, ptr %11, align 4, !tbaa !10
  call void @llvm.lifetime.start.p0(i64 12, ptr %12) #22
  call void @llvm.lifetime.start.p0(i64 8, ptr %13) #22
  %16 = load ptr, ptr %7, align 8, !tbaa !9
  %17 = load ptr, ptr %8, align 8, !tbaa !12
  %18 = load ptr, ptr %9, align 8, !tbaa !12
  %19 = load ptr, ptr %10, align 8, !tbaa !12
  %20 = load i32, ptr %11, align 4, !tbaa !10
  %21 = call noundef ptr @_ZL15stbi__load_mainP13stbi__contextPiS1_S1_iP17stbi__result_infoi(ptr noundef %16, ptr noundef %17, ptr noundef %18, ptr noundef %19, i32 noundef %20, ptr noundef %12, i32 noundef 8)
  store ptr %21, ptr %13, align 8, !tbaa !9
  %22 = load ptr, ptr %13, align 8, !tbaa !9
  %23 = icmp eq ptr %22, null
  br i1 %23, label %24, label %25

24:                                               ; preds = %5
  store ptr null, ptr %6, align 8
  store i32 1, ptr %14, align 4
  br label %89

25:                                               ; preds = %5
  %26 = getelementptr inbounds nuw %struct.stbi__result_info, ptr %12, i32 0, i32 0
  %27 = load i32, ptr %26, align 4, !tbaa !20
  %28 = icmp eq i32 %27, 8
  br i1 %28, label %35, label %29

29:                                               ; preds = %25
  %30 = getelementptr inbounds nuw %struct.stbi__result_info, ptr %12, i32 0, i32 0
  %31 = load i32, ptr %30, align 4, !tbaa !20
  %32 = icmp eq i32 %31, 16
  br i1 %32, label %35, label %33

33:                                               ; preds = %29
  call void @_ZN4pbrt8LogFatalIJRA54_KcEEEvNS_8LogLevelEPS1_iS5_DpOT_(i32 noundef 2, ptr noundef @.str.2, i32 noundef 1249, ptr noundef @.str.3, ptr noundef nonnull align 1 dereferenceable(54) @.str.4) #23
  unreachable

34:                                               ; No predecessors!
  br label %35

35:                                               ; preds = %34, %29, %25
  %36 = getelementptr inbounds nuw %struct.stbi__result_info, ptr %12, i32 0, i32 0
  %37 = load i32, ptr %36, align 4, !tbaa !20
  %38 = icmp ne i32 %37, 8
  br i1 %38, label %39, label %56

39:                                               ; preds = %35
  %40 = load ptr, ptr %13, align 8, !tbaa !9
  %41 = load ptr, ptr %8, align 8, !tbaa !12
  %42 = load i32, ptr %41, align 4, !tbaa !10
  %43 = load ptr, ptr %9, align 8, !tbaa !12
  %44 = load i32, ptr %43, align 4, !tbaa !10
  %45 = load i32, ptr %11, align 4, !tbaa !10
  %46 = icmp eq i32 %45, 0
  br i1 %46, label %47, label %50

47:                                               ; preds = %39
  %48 = load ptr, ptr %10, align 8, !tbaa !12
  %49 = load i32, ptr %48, align 4, !tbaa !10
  br label %52

50:                                               ; preds = %39
  %51 = load i32, ptr %11, align 4, !tbaa !10
  br label %52

52:                                               ; preds = %50, %47
  %53 = phi i32 [ %49, %47 ], [ %51, %50 ]
  %54 = call noundef ptr @_ZL21stbi__convert_16_to_8Ptiii(ptr noundef %40, i32 noundef %42, i32 noundef %44, i32 noundef %53)
  store ptr %54, ptr %13, align 8, !tbaa !9
  %55 = getelementptr inbounds nuw %struct.stbi__result_info, ptr %12, i32 0, i32 0
  store i32 8, ptr %55, align 4, !tbaa !20
  br label %56

56:                                               ; preds = %52, %35
  %57 = call align 4 ptr @llvm.threadlocal.address.p0(ptr align 4 @_ZL33stbi__vertically_flip_on_load_set)
  %58 = load i32, ptr %57, align 4, !tbaa !10
  %59 = icmp ne i32 %58, 0
  br i1 %59, label %60, label %63

60:                                               ; preds = %56
  %61 = call align 4 ptr @llvm.threadlocal.address.p0(ptr align 4 @_ZL35stbi__vertically_flip_on_load_local)
  %62 = load i32, ptr %61, align 4, !tbaa !10
  br label %65

63:                                               ; preds = %56
  %64 = load i32, ptr @_ZL36stbi__vertically_flip_on_load_global, align 4, !tbaa !10
  br label %65

65:                                               ; preds = %63, %60
  %66 = phi i32 [ %62, %60 ], [ %64, %63 ]
  %67 = icmp ne i32 %66, 0
  br i1 %67, label %68, label %87

68:                                               ; preds = %65
  call void @llvm.lifetime.start.p0(i64 4, ptr %15) #22
  %69 = load i32, ptr %11, align 4, !tbaa !10
  %70 = icmp ne i32 %69, 0
  br i1 %70, label %71, label %73

71:                                               ; preds = %68
  %72 = load i32, ptr %11, align 4, !tbaa !10
  br label %76

73:                                               ; preds = %68
  %74 = load ptr, ptr %10, align 8, !tbaa !12
  %75 = load i32, ptr %74, align 4, !tbaa !10
  br label %76

76:                                               ; preds = %73, %71
  %77 = phi i32 [ %72, %71 ], [ %75, %73 ]
  store i32 %77, ptr %15, align 4, !tbaa !10
  %78 = load ptr, ptr %13, align 8, !tbaa !9
  %79 = load ptr, ptr %8, align 8, !tbaa !12
  %80 = load i32, ptr %79, align 4, !tbaa !10
  %81 = load ptr, ptr %9, align 8, !tbaa !12
  %82 = load i32, ptr %81, align 4, !tbaa !10
  %83 = load i32, ptr %15, align 4, !tbaa !10
  %84 = sext i32 %83 to i64
  %85 = mul i64 %84, 1
  %86 = trunc i64 %85 to i32
  call void @_ZL19stbi__vertical_flipPviii(ptr noundef %78, i32 noundef %80, i32 noundef %82, i32 noundef %86)
  call void @llvm.lifetime.end.p0(i64 4, ptr %15) #22
  br label %87

87:                                               ; preds = %76, %65
  %88 = load ptr, ptr %13, align 8, !tbaa !9
  store ptr %88, ptr %6, align 8
  store i32 1, ptr %14, align 4
  br label %89

89:                                               ; preds = %87, %24
  call void @llvm.lifetime.end.p0(i64 8, ptr %13) #22
  call void @llvm.lifetime.end.p0(i64 12, ptr %12) #22
  %90 = load ptr, ptr %6, align 8
  ret ptr %90
}