; Function Attrs: mustprogress uwtable
define internal fastcc noundef ptr @_ZL31stbi__load_and_postprocess_8bitP13stbi__contextPiS1_S1_i(ptr noundef nonnull %0, ptr noundef captures(none) %1, ptr noundef captures(none) %2, ptr noundef %3, i32 noundef %4) unnamed_addr #5 {
  %6 = alloca [2048 x i8], align 16
  %7 = alloca %struct.stbi__result_info, align 4
  call void @llvm.lifetime.start.p0(i64 12, ptr nonnull %7) #40
  %8 = call fastcc noundef ptr @_ZL15stbi__load_mainP13stbi__contextPiS1_S1_iP17stbi__result_infoi(ptr noundef %0, ptr noundef %1, ptr noundef %2, ptr noundef %3, i32 noundef %4, ptr noundef %7, i32 noundef 8)
  %9 = icmp eq ptr %8, null
  br i1 %9, label %66, label %10

10:                                               ; preds = %5
  %11 = load i32, ptr %7, align 4, !tbaa !25
  switch i32 %11, label %12 [
    i32 8, label %34
    i32 16, label %13
  ]

12:                                               ; preds = %10
  tail call void @_ZN4pbrt8LogFatalIJRA54_KcEEEvNS_8LogLevelEPS1_iS5_DpOT_(i32 noundef 2, ptr noundef nonnull @.str.2, i32 noundef 1249, ptr noundef nonnull @.str.3, ptr noundef nonnull align 1 dereferenceable(54) @.str.4) #41
  unreachable

13:                                               ; preds = %10
  %14 = load i32, ptr %1, align 4, !tbaa !9
  %15 = load i32, ptr %2, align 4, !tbaa !9
  %16 = icmp eq i32 %4, 0
  br i1 %16, label %17, label %19

17:                                               ; preds = %13
  %18 = load i32, ptr %3, align 4, !tbaa !9
  br label %19

19:                                               ; preds = %13, %17
  %20 = phi i32 [ %18, %17 ], [ %4, %13 ]
  %21 = mul nsw i32 %15, %14
  %22 = mul nsw i32 %21, %20
  %23 = sext i32 %22 to i64
  %24 = tail call noalias noundef ptr @malloc(i64 noundef range(i64 -8589934588, 8589934589) %23) #42
  %25 = icmp eq ptr %24, null
  br i1 %25, label %27, label %.preheader.i

.preheader.i:                                     ; preds = %19
  %26 = icmp sgt i32 %22, 0
  br i1 %26, label %.lr.ph.preheader.i, label %._crit_edge.i

.lr.ph.preheader.i:                               ; preds = %.preheader.i
  %wide.trip.count.i = zext nneg i32 %22 to i64
  br label %.lr.ph.i

27:                                               ; preds = %19
  %28 = tail call align 8 ptr @llvm.threadlocal.address.p0(ptr align 8 @_ZL22stbi__g_failure_reason)
  store ptr @.str.8, ptr %28, align 8, !tbaa !4
  br label %_ZL21stbi__convert_16_to_8Ptiii.exit

.lr.ph.i:                                         ; preds = %.lr.ph.i, %.lr.ph.preheader.i
  %indvars.iv.i = phi i64 [ 0, %.lr.ph.preheader.i ], [ %indvars.iv.next.i, %.lr.ph.i ]
  %29 = getelementptr inbounds nuw i16, ptr %8, i64 %indvars.iv.i
  %30 = load i16, ptr %29, align 2, !tbaa !27
  %31 = lshr i16 %30, 8
  %32 = trunc nuw i16 %31 to i8
  %33 = getelementptr inbounds nuw i8, ptr %24, i64 %indvars.iv.i
  store i8 %32, ptr %33, align 1, !tbaa !22
  %indvars.iv.next.i = add nuw nsw i64 %indvars.iv.i, 1
  %exitcond.not.i = icmp eq i64 %indvars.iv.next.i, %wide.trip.count.i
  br i1 %exitcond.not.i, label %._crit_edge.i, label %.lr.ph.i, !llvm.loop !29

._crit_edge.i:                                    ; preds = %.lr.ph.i, %.preheader.i
  tail call void @free(ptr noundef nonnull %8) #40
  br label %_ZL21stbi__convert_16_to_8Ptiii.exit

_ZL21stbi__convert_16_to_8Ptiii.exit:             ; preds = %27, %._crit_edge.i
  store i32 8, ptr %7, align 4, !tbaa !25
  br label %34

34:                                               ; preds = %10, %_ZL21stbi__convert_16_to_8Ptiii.exit
  %.022 = phi ptr [ %24, %_ZL21stbi__convert_16_to_8Ptiii.exit ], [ %8, %10 ]
  %35 = tail call align 4 ptr @llvm.threadlocal.address.p0(ptr align 4 @_ZL33stbi__vertically_flip_on_load_set)
  %36 = load i32, ptr %35, align 4, !tbaa !9
  %.not25 = icmp eq i32 %36, 0
  %37 = tail call align 4 ptr @llvm.threadlocal.address.p0(ptr align 4 @_ZL35stbi__vertically_flip_on_load_local)
  %38 = load i32, ptr %37, align 4
  %39 = load i32, ptr @_ZL36stbi__vertically_flip_on_load_global, align 4
  %40 = select i1 %.not25, i32 %39, i32 %38
  %.not26 = icmp eq i32 %40, 0
  br i1 %.not26, label %66, label %41

41:                                               ; preds = %34
  %.not27 = icmp eq i32 %4, 0
  br i1 %.not27, label %42, label %44

42:                                               ; preds = %41
  %43 = load i32, ptr %3, align 4, !tbaa !9
  br label %44

44:                                               ; preds = %41, %42
  %45 = phi i32 [ %43, %42 ], [ %4, %41 ]
  %46 = load i32, ptr %1, align 4, !tbaa !9
  %47 = load i32, ptr %2, align 4, !tbaa !9
  %48 = sext i32 %46 to i64
  %49 = sext i32 %45 to i64
  %50 = mul nsw i64 %48, %49
  call void @llvm.lifetime.start.p0(i64 2048, ptr nonnull %6)
  %51 = ashr i32 %47, 1
  %52 = icmp slt i32 %51, 1
  %.not32.i = icmp eq i64 %50, 0
  %or.cond.i = select i1 %52, i1 true, i1 %.not32.i
  br i1 %or.cond.i, label %_ZL19stbi__vertical_flipPviii.exit, label %.lr.ph.preheader.i28

.lr.ph.preheader.i28:                             ; preds = %44
  %wide.trip.count.i29 = zext nneg i32 %51 to i64
  br label %.lr.ph.i30

.lr.ph.i30:                                       ; preds = %._crit_edge.i32, %.lr.ph.preheader.i28
  %indvars.iv.i31 = phi i64 [ 0, %.lr.ph.preheader.i28 ], [ %indvars.iv.next.i33, %._crit_edge.i32 ]
  %53 = mul i64 %indvars.iv.i31, %50
  %54 = getelementptr inbounds nuw i8, ptr %.022, i64 %53
  %55 = trunc i64 %indvars.iv.i31 to i32
  %56 = xor i32 %55, -1
  %57 = add i32 %47, %56
  %58 = sext i32 %57 to i64
  %59 = mul i64 %50, %58
  %60 = getelementptr inbounds nuw i8, ptr %.022, i64 %59
  br label %61

61:                                               ; preds = %61, %.lr.ph.i30
  %.02935.i = phi i64 [ %50, %.lr.ph.i30 ], [ %65, %61 ]
  %.03034.i = phi ptr [ %60, %.lr.ph.i30 ], [ %64, %61 ]
  %.03133.i = phi ptr [ %54, %.lr.ph.i30 ], [ %63, %61 ]
  %62 = tail call i64 @llvm.umin.i64(i64 %.02935.i, i64 2048)
  call void @llvm.memcpy.p0.p0.i64(ptr nonnull align 16 %6, ptr align 1 %.03133.i, i64 %62, i1 false)
  tail call void @llvm.memcpy.p0.p0.i64(ptr align 1 %.03133.i, ptr align 1 %.03034.i, i64 %62, i1 false)
  call void @llvm.memcpy.p0.p0.i64(ptr align 1 %.03034.i, ptr nonnull align 16 %6, i64 %62, i1 false)
  %63 = getelementptr inbounds nuw i8, ptr %.03133.i, i64 %62
  %64 = getelementptr inbounds nuw i8, ptr %.03034.i, i64 %62
  %65 = sub i64 %.02935.i, %62
  %.not.i = icmp eq i64 %65, 0
  br i1 %.not.i, label %._crit_edge.i32, label %61, !llvm.loop !31

._crit_edge.i32:                                  ; preds = %61
  %indvars.iv.next.i33 = add nuw nsw i64 %indvars.iv.i31, 1
  %exitcond.not.i34 = icmp eq i64 %indvars.iv.next.i33, %wide.trip.count.i29
  br i1 %exitcond.not.i34, label %_ZL19stbi__vertical_flipPviii.exit, label %.lr.ph.i30, !llvm.loop !32

_ZL19stbi__vertical_flipPviii.exit:               ; preds = %._crit_edge.i32, %44
  call void @llvm.lifetime.end.p0(i64 2048, ptr nonnull %6)
  br label %66

66:                                               ; preds = %34, %_ZL19stbi__vertical_flipPviii.exit, %5
  %.0 = phi ptr [ null, %5 ], [ %.022, %_ZL19stbi__vertical_flipPviii.exit ], [ %.022, %34 ]
  call void @llvm.lifetime.end.p0(i64 12, ptr nonnull %7) #40
  ret ptr %.0
}